; ModuleID = 'source-C-CXX/24/131.cpp'
source_filename = "source-C-CXX/24/131.cpp"
target datalayout = "e-m:e-p270:32:32-p271:32:32-p272:64:64-i64:64-f80:128-n8:16:32:64-S128"
target triple = "x86_64-pc-linux-gnu"

%"class.std::ios_base::Init" = type { i8 }
%"class.std::basic_istream" = type { i32 (...)**, i64, %"class.std::basic_ios" }
%"class.std::basic_ios" = type { %"class.std::ios_base", %"class.std::basic_ostream"*, i8, i8, %"class.std::basic_streambuf"*, %"class.std::ctype"*, %"class.std::num_put"*, %"class.std::num_get"* }
%"class.std::ios_base" = type { i32 (...)**, i64, i64, i32, i32, i32, %"struct.std::ios_base::_Callback_list"*, %"struct.std::ios_base::_Words", [8 x %"struct.std::ios_base::_Words"], i32, %"struct.std::ios_base::_Words"*, %"class.std::locale" }
%"struct.std::ios_base::_Callback_list" = type { %"struct.std::ios_base::_Callback_list"*, void (i32, %"class.std::ios_base"*, i32)*, i32, i32 }
%"struct.std::ios_base::_Words" = type { i8*, i64 }
%"class.std::locale" = type { %"class.std::locale::_Impl"* }
%"class.std::locale::_Impl" = type { i32, %"class.std::locale::facet"**, i64, %"class.std::locale::facet"**, i8** }
%"class.std::locale::facet" = type <{ i32 (...)**, i32, [4 x i8] }>
%"class.std::basic_ostream" = type { i32 (...)**, %"class.std::basic_ios" }
%"class.std::basic_streambuf" = type { i32 (...)**, i8*, i8*, i8*, i8*, i8*, i8*, %"class.std::locale" }
%"class.std::ctype" = type <{ %"class.std::locale::facet.base", [4 x i8], %struct.__locale_struct*, i8, [7 x i8], i32*, i32*, i16*, i8, [256 x i8], [256 x i8], i8, [6 x i8] }>
%"class.std::locale::facet.base" = type <{ i32 (...)**, i32 }>
%struct.__locale_struct = type { [13 x %struct.__locale_data*], i16*, i32*, i32*, [13 x i8*] }
%struct.__locale_data = type opaque
%"class.std::num_put" = type { %"class.std::locale::facet.base", [4 x i8] }
%"class.std::num_get" = type { %"class.std::locale::facet.base", [4 x i8] }

@_ZStL8__ioinit = internal global %"class.std::ios_base::Init" zeroinitializer, align 1
@__dso_handle = external hidden global i8
@_ZSt3cin = external global %"class.std::basic_istream", align 8
@_ZSt4cout = external global %"class.std::basic_ostream", align 8
@mid = dso_local local_unnamed_addr global i32 0, align 4
@llvm.global_ctors = appending global [1 x { i32, void ()*, i8* }] [{ i32, void ()*, i8* } { i32 65535, void ()* @_GLOBAL__sub_I_131.cpp, i8* null }]

declare void @_ZNSt8ios_base4InitC1Ev(%"class.std::ios_base::Init"* nonnull align 1 dereferenceable(1)) unnamed_addr #0

; Function Attrs: nounwind
declare void @_ZNSt8ios_base4InitD1Ev(%"class.std::ios_base::Init"* nonnull align 1 dereferenceable(1)) unnamed_addr #1

; Function Attrs: nofree nounwind
declare i32 @__cxa_atexit(void (i8*)*, i8*, i8*) local_unnamed_addr #2

; Function Attrs: mustprogress norecurse sspstrong uwtable
define dso_local i32 @main() local_unnamed_addr #3 {
  %1 = alloca i8, align 1
  %2 = alloca i32, align 4
  %3 = alloca [100 x i8], align 16
  %4 = bitcast i32* %2 to i8*
  call void @llvm.lifetime.start.p0i8(i64 4, i8* nonnull %4) #8
  %5 = getelementptr inbounds [100 x i8], [100 x i8]* %3, i64 0, i64 0
  call void @llvm.lifetime.start.p0i8(i64 100, i8* nonnull %5) #8
  call void @llvm.memset.p0i8.i64(i8* noundef nonnull align 16 dereferenceable(100) %5, i8 0, i64 100, i1 false)
  store i8 49, i8* %5, align 16, !tbaa !5
  %6 = call nonnull align 8 dereferenceable(16) %"class.std::basic_istream"* @_ZNSirsERi(%"class.std::basic_istream"* nonnull align 8 dereferenceable(16) @_ZSt3cin, i32* nonnull align 4 dereferenceable(4) %2)
  %7 = load i32, i32* %2, align 4, !tbaa !8
  %8 = icmp sgt i32 %7, 0
  br i1 %8, label %10, label %9

9:                                                ; preds = %43, %0
  br label %49

10:                                               ; preds = %0
  %11 = load i32, i32* @mid, align 4
  br label %12

12:                                               ; preds = %47, %10
  %13 = phi i32 [ %44, %47 ], [ %11, %10 ]
  %14 = phi i8 [ %48, %47 ], [ 49, %10 ]
  %15 = phi i32 [ %45, %47 ], [ 0, %10 ]
  %16 = icmp ne i8 %14, 0
  %17 = icmp ne i32 %13, 0
  %18 = select i1 %16, i1 true, i1 %17
  br i1 %18, label %19, label %43

19:                                               ; preds = %12, %19
  %20 = phi i64 [ %37, %19 ], [ 0, %12 ]
  %21 = phi i32 [ %34, %19 ], [ %13, %12 ]
  %22 = phi i1 [ %40, %19 ], [ %16, %12 ]
  %23 = phi i8 [ %39, %19 ], [ %14, %12 ]
  %24 = phi i8* [ %38, %19 ], [ %5, %12 ]
  %25 = sext i8 %23 to i32
  %26 = shl nsw i32 %25, 1
  %27 = add i32 %21, -96
  %28 = add i32 %27, %26
  %29 = select i1 %22, i32 %28, i32 %21
  %30 = icmp slt i32 %29, 10
  %31 = srem i32 %29, 10
  %32 = select i1 %30, i32 %29, i32 %31
  %33 = xor i1 %30, true
  %34 = zext i1 %33 to i32
  %35 = trunc i32 %32 to i8
  %36 = add i8 %35, 48
  store i8 %36, i8* %24, align 1, !tbaa !5
  %37 = add nuw i64 %20, 1
  %38 = getelementptr inbounds [100 x i8], [100 x i8]* %3, i64 0, i64 %37
  %39 = load i8, i8* %38, align 1, !tbaa !5
  %40 = icmp ne i8 %39, 0
  %41 = select i1 %40, i1 true, i1 %33
  br i1 %41, label %19, label %42, !llvm.loop !10

42:                                               ; preds = %19
  store i32 %34, i32* @mid, align 4, !tbaa !8
  br label %43

43:                                               ; preds = %42, %12
  %44 = phi i32 [ %34, %42 ], [ 0, %12 ]
  %45 = add nuw nsw i32 %15, 1
  %46 = icmp eq i32 %45, %7
  br i1 %46, label %9, label %47, !llvm.loop !12

47:                                               ; preds = %43
  %48 = load i8, i8* %5, align 16, !tbaa !5
  br label %12

49:                                               ; preds = %9, %49
  %50 = phi i64 [ %54, %49 ], [ 0, %9 ]
  %51 = getelementptr inbounds [100 x i8], [100 x i8]* %3, i64 0, i64 %50
  %52 = load i8, i8* %51, align 1, !tbaa !5
  %53 = icmp eq i8 %52, 0
  %54 = add nuw i64 %50, 1
  br i1 %53, label %55, label %49, !llvm.loop !13

55:                                               ; preds = %49
  %56 = trunc i64 %50 to i32
  %57 = icmp eq i32 %56, 0
  br i1 %57, label %71, label %58

58:                                               ; preds = %55
  %59 = and i64 %50, 4294967295
  br label %60

60:                                               ; preds = %58, %60
  %61 = phi i64 [ %59, %58 ], [ %70, %60 ]
  %62 = phi i32 [ %56, %58 ], [ %63, %60 ]
  %63 = add nsw i32 %62, -1
  %64 = zext i32 %63 to i64
  %65 = getelementptr inbounds [100 x i8], [100 x i8]* %3, i64 0, i64 %64
  %66 = load i8, i8* %65, align 1, !tbaa !5
  call void @llvm.lifetime.start.p0i8(i64 1, i8* nonnull %1)
  store i8 %66, i8* %1, align 1, !tbaa !5
  %67 = call nonnull align 8 dereferenceable(8) %"class.std::basic_ostream"* @_ZSt16__ostream_insertIcSt11char_traitsIcEERSt13basic_ostreamIT_T0_ES6_PKS3_l(%"class.std::basic_ostream"* nonnull align 8 dereferenceable(8) @_ZSt4cout, i8* nonnull %1, i64 1)
  call void @llvm.lifetime.end.p0i8(i64 1, i8* nonnull %1)
  %68 = trunc i64 %61 to i32
  %69 = icmp sgt i32 %68, 1
  %70 = add nsw i64 %61, -1
  br i1 %69, label %60, label %71, !llvm.loop !14

71:                                               ; preds = %60, %55
  call void @llvm.lifetime.end.p0i8(i64 100, i8* nonnull %5) #8
  call void @llvm.lifetime.end.p0i8(i64 4, i8* nonnull %4) #8
  ret i32 0
}

; Function Attrs: argmemonly mustprogress nofree nosync nounwind willreturn
declare void @llvm.lifetime.start.p0i8(i64 immarg, i8* nocapture) #4

; Function Attrs: argmemonly mustprogress nofree nounwind willreturn writeonly
declare void @llvm.memset.p0i8.i64(i8* nocapture writeonly, i8, i64, i1 immarg) #5

declare nonnull align 8 dereferenceable(16) %"class.std::basic_istream"* @_ZNSirsERi(%"class.std::basic_istream"* nonnull align 8 dereferenceable(16), i32* nonnull align 4 dereferenceable(4)) local_unnamed_addr #0

; Function Attrs: mustprogress nofree norecurse nosync nounwind sspstrong uwtable
define dso_local void @_Z8increasePc(i8* nocapture %0) local_unnamed_addr #6 {
  %2 = load i8, i8* %0, align 1, !tbaa !5
  %3 = icmp ne i8 %2, 0
  %4 = load i32, i32* @mid, align 4
  %5 = icmp ne i32 %4, 0
  %6 = select i1 %3, i1 true, i1 %5
  br i1 %6, label %7, label %30

7:                                                ; preds = %1, %7
  %8 = phi i64 [ %25, %7 ], [ 0, %1 ]
  %9 = phi i32 [ %22, %7 ], [ %4, %1 ]
  %10 = phi i1 [ %28, %7 ], [ %3, %1 ]
  %11 = phi i8 [ %27, %7 ], [ %2, %1 ]
  %12 = phi i8* [ %26, %7 ], [ %0, %1 ]
  %13 = sext i8 %11 to i32
  %14 = shl nsw i32 %13, 1
  %15 = add i32 %9, -96
  %16 = add i32 %15, %14
  %17 = select i1 %10, i32 %16, i32 %9
  %18 = icmp slt i32 %17, 10
  %19 = srem i32 %17, 10
  %20 = select i1 %18, i32 %17, i32 %19
  %21 = xor i1 %18, true
  %22 = zext i1 %21 to i32
  %23 = trunc i32 %20 to i8
  %24 = add i8 %23, 48
  store i8 %24, i8* %12, align 1, !tbaa !5
  store i32 %22, i32* @mid, align 4, !tbaa !8
  %25 = add nuw i64 %8, 1
  %26 = getelementptr inbounds i8, i8* %0, i64 %25
  %27 = load i8, i8* %26, align 1, !tbaa !5
  %28 = icmp ne i8 %27, 0
  %29 = select i1 %28, i1 true, i1 %21
  br i1 %29, label %7, label %30, !llvm.loop !10

30:                                               ; preds = %7, %1
  ret void
}

; Function Attrs: argmemonly mustprogress nofree nosync nounwind willreturn
declare void @llvm.lifetime.end.p0i8(i64 immarg, i8* nocapture) #4

declare nonnull align 8 dereferenceable(8) %"class.std::basic_ostream"* @_ZSt16__ostream_insertIcSt11char_traitsIcEERSt13basic_ostreamIT_T0_ES6_PKS3_l(%"class.std::basic_ostream"* nonnull align 8 dereferenceable(8), i8*, i64) local_unnamed_addr #0

; Function Attrs: sspstrong uwtable
define internal void @_GLOBAL__sub_I_131.cpp() #7 section ".text.startup" {
  tail call void @_ZNSt8ios_base4InitC1Ev(%"class.std::ios_base::Init"* nonnull align 1 dereferenceable(1) @_ZStL8__ioinit)
  %1 = tail call i32 @__cxa_atexit(void (i8*)* bitcast (void (%"class.std::ios_base::Init"*)* @_ZNSt8ios_base4InitD1Ev to void (i8*)*), i8* getelementptr inbounds (%"class.std::ios_base::Init", %"class.std::ios_base::Init"* @_ZStL8__ioinit, i64 0, i32 0), i8* nonnull @__dso_handle) #8
  ret void
}


!llvm.module.flags = !{!0, !1, !2, !3}
!llvm.ident = !{!4}

!0 = !{i32 1, !"wchar_size", i32 4}
!1 = !{i32 7, !"PIC Level", i32 2}
!2 = !{i32 7, !"PIE Level", i32 2}
!3 = !{i32 7, !"uwtable", i32 1}
!4 = !{!"clang version 13.0.0"}
!5 = !{!6, !6, i64 0}
!6 = !{!"omnipotent char", !7, i64 0}
!7 = !{!"Simple C++ TBAA"}
!8 = !{!9, !9, i64 0}
!9 = !{!"int", !6, i64 0}
!10 = distinct !{!10, !11}
!11 = !{!"llvm.loop.mustprogress"}
!12 = distinct !{!12, !11}
!13 = distinct !{!13, !11}
!14 = distinct !{!14, !11}
